target datalayout = "e-m:e-p270:32:32-p271:32:32-p272:64:64-i64:64-i128:128-f80:128-n8:16:32:64-S128"
target triple = "x86_64-unknown-linux-gnu"

%"class.boost::detail::shared_count" = type { ptr }
%"class.QuantLib::AdaptedPathPayoff::ValuationData" = type { ptr, ptr, ptr, ptr, ptr, i64 }
%"struct.std::_Vector_base" = type { %"struct.std::_Vector_base<QuantLib::Handle<QuantLib::YieldTermStructure>, std::allocator<QuantLib::Handle<QuantLib::YieldTermStructure>>>::_Vector_impl" }
%"struct.std::_Vector_base<QuantLib::Handle<QuantLib::YieldTermStructure>, std::allocator<QuantLib::Handle<QuantLib::YieldTermStructure>>>::_Vector_impl" = type { %"struct.std::_Vector_base<QuantLib::Handle<QuantLib::YieldTermStructure>, std::allocator<QuantLib::Handle<QuantLib::YieldTermStructure>>>::_Vector_impl_data" }
%"struct.std::_Vector_base<QuantLib::Handle<QuantLib::YieldTermStructure>, std::allocator<QuantLib::Handle<QuantLib::YieldTermStructure>>>::_Vector_impl_data" = type { ptr, ptr, ptr }
%"class.QuantLib::Handle" = type { %"class.boost::shared_ptr.22" }
%"class.boost::shared_ptr.22" = type { ptr, %"class.boost::detail::shared_count" }

; Function Attrs: mustprogress nounwind uwtable
define linkonce_odr noundef nonnull align 1 ptr @_ZNKSt6vectorIN8QuantLib6HandleINS0_18YieldTermStructureEEESaIS3_EEixEm(ptr noundef nonnull align 8 dereferenceable(24) %this, i64 noundef %__n) #4 comdat align 2 {
entry:
  %this.addr = alloca ptr, align 8
  %__n.addr = alloca i64, align 8
  store ptr %this, ptr %this.addr, align 8, !tbaa !3
  store i64 %__n, ptr %__n.addr, align 8, !tbaa !22
  %this1 = load ptr, ptr %this.addr, align 8
  %_M_impl = getelementptr inbounds nuw %"struct.std::_Vector_base", ptr %this1, i32 0, i32 0
  %_M_start = getelementptr inbounds nuw %"struct.std::_Vector_base<QuantLib::Handle<QuantLib::YieldTermStructure>, std::allocator<QuantLib::Handle<QuantLib::YieldTermStructure>>>::_Vector_impl_data", ptr %_M_impl, i32 0, i32 0
  %0 = load ptr, ptr %_M_start, align 8, !tbaa !26
  %1 = load i64, ptr %__n.addr, align 8, !tbaa !22
  %add.ptr = getelementptr inbounds nuw %"class.QuantLib::Handle", ptr %0, i64 %1
  ret ptr %add.ptr
}

; Function Attrs: inlinehint mustprogress nounwind uwtable
define linkonce_odr noundef nonnull align 8 dereferenceable(8) ptr @_ZSt3maxImERKT_S2_S2_(ptr noundef nonnull align 8 dereferenceable(8) %__a, ptr noundef nonnull align 8 dereferenceable(8) %__b) #9 comdat {
entry:
  %retval = alloca ptr, align 8
  %__a.addr = alloca ptr, align 8
  %__b.addr = alloca ptr, align 8
  store ptr %__a, ptr %__a.addr, align 8, !tbaa !3
  store ptr %__b, ptr %__b.addr, align 8, !tbaa !3
  %0 = load ptr, ptr %__a.addr, align 8, !tbaa !3
  %1 = load i64, ptr %0, align 8, !tbaa !22
  %2 = load ptr, ptr %__b.addr, align 8, !tbaa !3
  %3 = load i64, ptr %2, align 8, !tbaa !22
  %cmp = icmp ult i64 %1, %3
  br i1 %cmp, label %if.then, label %if.end

if.then:                                          ; preds = %entry
  %4 = load ptr, ptr %__b.addr, align 8, !tbaa !3
  store ptr %4, ptr %retval, align 8
  br label %return

if.end:                                           ; preds = %entry
  %5 = load ptr, ptr %__a.addr, align 8, !tbaa !3
  store ptr %5, ptr %retval, align 8
  br label %return

return:                                           ; preds = %if.end, %if.then
  %6 = load ptr, ptr %retval, align 8
  ret ptr %6
}

; Function Attrs: mustprogress uwtable
define noundef nonnull align 1 ptr @_ZN8QuantLib17AdaptedPathPayoff13ValuationData21getYieldTermStructureEm(ptr noundef nonnull align 8 dereferenceable(48) %this, i64 noundef %time) #7 align 2 {
entry:
  %this.addr = alloca ptr, align 8
  %time.addr = alloca i64, align 8
  store ptr %this, ptr %this.addr, align 8, !tbaa !3
  store i64 %time, ptr %time.addr, align 8, !tbaa !22
  %this1 = load ptr, ptr %this.addr, align 8
  %maximumTimeRead_ = getelementptr inbounds nuw %"class.QuantLib::AdaptedPathPayoff::ValuationData", ptr %this1, i32 0, i32 5
  %call = call noundef nonnull align 8 dereferenceable(8) ptr @_ZSt3maxImERKT_S2_S2_(ptr noundef nonnull align 8 dereferenceable(8) %maximumTimeRead_, ptr noundef nonnull align 8 dereferenceable(8) %time.addr)
  %0 = load i64, ptr %call, align 8, !tbaa !22
  %maximumTimeRead_2 = getelementptr inbounds nuw %"class.QuantLib::AdaptedPathPayoff::ValuationData", ptr %this1, i32 0, i32 5
  store i64 %0, ptr %maximumTimeRead_2, align 8, !tbaa !9
  %forwardTermStructures_ = getelementptr inbounds nuw %"class.QuantLib::AdaptedPathPayoff::ValuationData", ptr %this1, i32 0, i32 1
  %1 = load ptr, ptr %forwardTermStructures_, align 8, !tbaa !25
  %2 = load i64, ptr %time.addr, align 8, !tbaa !22
  %call3 = call noundef nonnull align 1 ptr @_ZNKSt6vectorIN8QuantLib6HandleINS0_18YieldTermStructureEEESaIS3_EEixEm(ptr noundef nonnull align 8 dereferenceable(24) %1, i64 noundef %2) #15
  ret ptr %call3
}