; Function Attrs: mustprogress nofree norecurse nosync nounwind willreturn memory(read, argmem: readwrite, inaccessiblemem: none) uwtable
define noundef nonnull align 1 ptr @_ZN8QuantLib17AdaptedPathPayoff13ValuationData21getYieldTermStructureEm(ptr nocapture noundef nonnull align 8 dereferenceable(48) %this, i64 noundef %time) local_unnamed_addr #13 align 2 {
entry:
  %maximumTimeRead_ = getelementptr inbounds nuw i8, ptr %this, i64 40
  %0 = load i64, ptr %maximumTimeRead_, align 8, !tbaa !15
  %.sroa.speculated = tail call i64 @llvm.umax.i64(i64 %0, i64 %time)
  store i64 %.sroa.speculated, ptr %maximumTimeRead_, align 8, !tbaa !19
  %forwardTermStructures_ = getelementptr inbounds nuw i8, ptr %this, i64 8
  %1 = load ptr, ptr %forwardTermStructures_, align 8, !tbaa !33
  %2 = load ptr, ptr %1, align 8, !tbaa !34
  %add.ptr.i = getelementptr inbounds nuw %"class.QuantLib::Handle", ptr %2, i64 %time
  ret ptr %add.ptr.i
}